target datalayout = "e-m:e-p270:32:32-p271:32:32-p272:64:64-i64:64-i128:128-f80:128-n8:16:32:64-S128"
target triple = "x86_64-pc-linux-gnu"

%"struct.Imf_3_4::Chromaticities" = type { %"class.Imath_3_2::Vec2", %"class.Imath_3_2::Vec2", %"class.Imath_3_2::Vec2", %"class.Imath_3_2::Vec2" }
%"class.Imath_3_2::Vec2" = type { float, float }

; Function Attrs: inlinehint mustprogress nounwind uwtable
define linkonce_odr hidden noundef zeroext i1 @_ZNK9Imath_3_24Vec2IfEneIfEEbRKNS0_IT_EE(ptr noundef nonnull align 4 dereferenceable(8) %0, ptr noundef nonnull align 4 dereferenceable(8) %1) #5 comdat align 2 {
  %3 = alloca ptr, align 8
  %4 = alloca ptr, align 8
  store ptr %0, ptr %3, align 8, !tbaa !8
  store ptr %1, ptr %4, align 8, !tbaa !8
  %5 = load ptr, ptr %3, align 8
  %6 = getelementptr inbounds nuw %"class.Imath_3_2::Vec2", ptr %5, i32 0, i32 0
  %7 = load float, ptr %6, align 4, !tbaa !10
  %8 = load ptr, ptr %4, align 8, !tbaa !8
  %9 = getelementptr inbounds nuw %"class.Imath_3_2::Vec2", ptr %8, i32 0, i32 0
  %10 = load float, ptr %9, align 4, !tbaa !10
  %11 = fcmp une float %7, %10
  br i1 %11, label %19, label %12

12:                                               ; preds = %2
  %13 = getelementptr inbounds nuw %"class.Imath_3_2::Vec2", ptr %5, i32 0, i32 1
  %14 = load float, ptr %13, align 4, !tbaa !13
  %15 = load ptr, ptr %4, align 8, !tbaa !8
  %16 = getelementptr inbounds nuw %"class.Imath_3_2::Vec2", ptr %15, i32 0, i32 1
  %17 = load float, ptr %16, align 4, !tbaa !13
  %18 = fcmp une float %14, %17
  br label %19

19:                                               ; preds = %12, %2
  %20 = phi i1 [ true, %2 ], [ %18, %12 ]
  ret i1 %20
}

; Function Attrs: mustprogress nounwind uwtable
define noundef zeroext i1 @_ZNK7Imf_3_414ChromaticitiesneERKS0_(ptr noundef nonnull align 4 dereferenceable(32) %0, ptr noundef nonnull align 4 dereferenceable(32) %1) #4 align 2 {
  %3 = alloca ptr, align 8
  %4 = alloca ptr, align 8
  store ptr %0, ptr %3, align 8, !tbaa !3
  store ptr %1, ptr %4, align 8, !tbaa !3
  %5 = load ptr, ptr %3, align 8
  %6 = getelementptr inbounds nuw %"struct.Imf_3_4::Chromaticities", ptr %5, i32 0, i32 0
  %7 = load ptr, ptr %4, align 8, !tbaa !3
  %8 = getelementptr inbounds nuw %"struct.Imf_3_4::Chromaticities", ptr %7, i32 0, i32 0
  %9 = call noundef zeroext i1 @_ZNK9Imath_3_24Vec2IfEneIfEEbRKNS0_IT_EE(ptr noundef nonnull align 4 dereferenceable(8) %6, ptr noundef nonnull align 4 dereferenceable(8) %8) #3
  br i1 %9, label %25, label %10

10:                                               ; preds = %2
  %11 = getelementptr inbounds nuw %"struct.Imf_3_4::Chromaticities", ptr %5, i32 0, i32 1
  %12 = load ptr, ptr %4, align 8, !tbaa !3
  %13 = getelementptr inbounds nuw %"struct.Imf_3_4::Chromaticities", ptr %12, i32 0, i32 1
  %14 = call noundef zeroext i1 @_ZNK9Imath_3_24Vec2IfEneIfEEbRKNS0_IT_EE(ptr noundef nonnull align 4 dereferenceable(8) %11, ptr noundef nonnull align 4 dereferenceable(8) %13) #3
  br i1 %14, label %25, label %15

15:                                               ; preds = %10
  %16 = getelementptr inbounds nuw %"struct.Imf_3_4::Chromaticities", ptr %5, i32 0, i32 2
  %17 = load ptr, ptr %4, align 8, !tbaa !3
  %18 = getelementptr inbounds nuw %"struct.Imf_3_4::Chromaticities", ptr %17, i32 0, i32 2
  %19 = call noundef zeroext i1 @_ZNK9Imath_3_24Vec2IfEneIfEEbRKNS0_IT_EE(ptr noundef nonnull align 4 dereferenceable(8) %16, ptr noundef nonnull align 4 dereferenceable(8) %18) #3
  br i1 %19, label %25, label %20

20:                                               ; preds = %15
  %21 = getelementptr inbounds nuw %"struct.Imf_3_4::Chromaticities", ptr %5, i32 0, i32 3
  %22 = load ptr, ptr %4, align 8, !tbaa !3
  %23 = getelementptr inbounds nuw %"struct.Imf_3_4::Chromaticities", ptr %22, i32 0, i32 3
  %24 = call noundef zeroext i1 @_ZNK9Imath_3_24Vec2IfEneIfEEbRKNS0_IT_EE(ptr noundef nonnull align 4 dereferenceable(8) %21, ptr noundef nonnull align 4 dereferenceable(8) %23) #3
  br label %25

25:                                               ; preds = %20, %15, %10, %2
  %26 = phi i1 [ true, %15 ], [ true, %10 ], [ true, %2 ], [ %24, %20 ]
  ret i1 %26
}