; Function Attrs: mustprogress nofree norecurse nosync nounwind willreturn memory(argmem: read) uwtable
define noundef zeroext i1 @_ZNK7Imf_3_414ChromaticitiesneERKS0_(ptr noundef nonnull readonly align 4 captures(none) dereferenceable(32) %0, ptr noundef nonnull readonly align 4 captures(none) dereferenceable(32) %1) local_unnamed_addr #4 align 2 {
  %3 = load float, ptr %0, align 4, !tbaa !3
  %4 = load float, ptr %1, align 4, !tbaa !3
  %5 = fcmp une float %3, %4
  %6 = getelementptr inbounds nuw i8, ptr %0, i64 4
  %7 = load float, ptr %6, align 4
  %8 = getelementptr inbounds nuw i8, ptr %1, i64 4
  %9 = load float, ptr %8, align 4
  %10 = fcmp une float %7, %9
  %11 = select i1 %5, i1 true, i1 %10
  br i1 %11, label %48, label %12

12:                                               ; preds = %2
  %13 = getelementptr inbounds nuw i8, ptr %0, i64 8
  %14 = getelementptr inbounds nuw i8, ptr %1, i64 8
  %15 = load float, ptr %13, align 4, !tbaa !3
  %16 = load float, ptr %14, align 4, !tbaa !3
  %17 = fcmp une float %15, %16
  %18 = getelementptr inbounds nuw i8, ptr %0, i64 12
  %19 = load float, ptr %18, align 4
  %20 = getelementptr inbounds nuw i8, ptr %1, i64 12
  %21 = load float, ptr %20, align 4
  %22 = fcmp une float %19, %21
  %23 = select i1 %17, i1 true, i1 %22
  br i1 %23, label %48, label %24

24:                                               ; preds = %12
  %25 = getelementptr inbounds nuw i8, ptr %0, i64 16
  %26 = getelementptr inbounds nuw i8, ptr %1, i64 16
  %27 = load float, ptr %25, align 4, !tbaa !3
  %28 = load float, ptr %26, align 4, !tbaa !3
  %29 = fcmp une float %27, %28
  %30 = getelementptr inbounds nuw i8, ptr %0, i64 20
  %31 = load float, ptr %30, align 4
  %32 = getelementptr inbounds nuw i8, ptr %1, i64 20
  %33 = load float, ptr %32, align 4
  %34 = fcmp une float %31, %33
  %35 = select i1 %29, i1 true, i1 %34
  br i1 %35, label %48, label %36

36:                                               ; preds = %24
  %37 = getelementptr inbounds nuw i8, ptr %0, i64 24
  %38 = getelementptr inbounds nuw i8, ptr %1, i64 24
  %39 = load float, ptr %37, align 4, !tbaa !3
  %40 = load float, ptr %38, align 4, !tbaa !3
  %41 = fcmp une float %39, %40
  %42 = getelementptr inbounds nuw i8, ptr %0, i64 28
  %43 = load float, ptr %42, align 4
  %44 = getelementptr inbounds nuw i8, ptr %1, i64 28
  %45 = load float, ptr %44, align 4
  %46 = fcmp une float %43, %45
  %47 = select i1 %41, i1 true, i1 %46
  br label %48

48:                                               ; preds = %36, %24, %12, %2
  %49 = phi i1 [ true, %24 ], [ true, %12 ], [ true, %2 ], [ %47, %36 ]
  ret i1 %49
}